; Function Attrs: mustprogress nofree norecurse nosync nounwind willreturn memory(argmem: readwrite) uwtable
define void @_ZN4base11PickleSizer11AddString16ERKNS_16BasicStringPieceINSt7__cxx1112basic_stringItNS_20string16_char_traitsESaItEEEEE(ptr noundef nonnull align 8 captures(none) dereferenceable(8) %0, ptr noundef nonnull readonly align 8 captures(none) dereferenceable(16) %1) local_unnamed_addr #3 align 2 personality ptr @__gxx_personality_v0 {
  %3 = load i64, ptr %0, align 8, !tbaa !3
  %4 = add i64 %3, 4
  %5 = getelementptr inbounds nuw i8, ptr %1, i64 8
  %6 = load i64, ptr %5, align 8, !tbaa !42
  %.tr = trunc i64 %6 to i32
  %7 = shl i32 %.tr, 1
  %8 = sext i32 %7 to i64
  %9 = add nsw i64 %8, 3
  %10 = and i64 %9, -4
  %11 = add i64 %10, %4
  store i64 %11, ptr %0, align 8, !tbaa !3
  ret void
}